	.cpu cortex-m7
	.eabi_attribute 20, 1
	.eabi_attribute 21, 1
	.eabi_attribute 23, 3
	.eabi_attribute 24, 1
	.eabi_attribute 25, 1
	.eabi_attribute 26, 1
	.eabi_attribute 30, 6
	.eabi_attribute 34, 1
	.eabi_attribute 18, 4
	.file	"event_groups.c"
	.text
.Ltext0:
	.section	.text.xEventGroupCreate,"ax",%progbits
	.align	1
	.global	xEventGroupCreate
	.syntax unified
	.thumb
	.thumb_func
	.fpu softvfp
	.type	xEventGroupCreate, %function
xEventGroupCreate:
.LFB5:
	.file 1 "/Users/zarathustra/Desktop/stm32h7-autopilot/stm32h7-autopilot/Middlewares/Third_Party/FreeRTOS/Source/event_groups.c"
	.loc 1 175 0
	@ args = 0, pretend = 0, frame = 8
	@ frame_needed = 0, uses_anonymous_args = 0
	push	{lr}
.LCFI0:
	sub	sp, sp, #12
.LCFI1:
	.loc 1 179 0
	movs	r0, #28
	bl	pvPortMalloc
	str	r0, [sp, #4]
	.loc 1 181 0
	ldr	r3, [sp, #4]
	cmp	r3, #0
	beq	.L2
	.loc 1 183 0
	ldr	r3, [sp, #4]
	movs	r2, #0
	str	r2, [r3]
	.loc 1 184 0
	ldr	r3, [sp, #4]
	adds	r3, r3, #4
	mov	r0, r3
	bl	vListInitialise
.L2:
	.loc 1 202 0
	ldr	r3, [sp, #4]
	.loc 1 203 0
	mov	r0, r3
	add	sp, sp, #12
.LCFI2:
	@ sp needed
	ldr	pc, [sp], #4
.LFE5:
	.size	xEventGroupCreate, .-xEventGroupCreate
	.section	.text.xEventGroupSync,"ax",%progbits
	.align	1
	.global	xEventGroupSync
	.syntax unified
	.thumb
	.thumb_func
	.fpu softvfp
	.type	xEventGroupSync, %function
xEventGroupSync:
.LFB6:
	.loc 1 209 0
	@ args = 0, pretend = 0, frame = 48
	@ frame_needed = 0, uses_anonymous_args = 0
	push	{lr}
.LCFI3:
	sub	sp, sp, #52
.LCFI4:
	str	r0, [sp, #12]
	str	r1, [sp, #8]
	str	r2, [sp, #4]
	str	r3, [sp]
	.loc 1 211 0
	ldr	r3, [sp, #12]
	str	r3, [sp, #40]
	.loc 1 213 0
	movs	r3, #0
	str	r3, [sp, #36]
	.loc 1 215 0
	ldr	r3, [sp, #4]
	and	r3, r3, #-16777216
	cmp	r3, #0
	beq	.L5
.LBB31:
.LBB32:
	.file 2 "../Middlewares/Third_Party/FreeRTOS/Source/portable/GCC/ARM_CM7/r0p1/portmacro.h"
	.loc 2 237 0 discriminator 1
	.syntax unified
@ 237 "../Middlewares/Third_Party/FreeRTOS/Source/portable/GCC/ARM_CM7/r0p1/portmacro.h" 1
		mov r3, #80												
	cpsid i													
	msr basepri, r3											
	isb														
	dsb														
	cpsie i													

@ 0 "" 2
	.thumb
	.syntax unified
	str	r3, [sp, #24]
.L6:
.LBE32:
.LBE31:
	.loc 1 215 0 discriminator 1
	b	.L6
.L5:
	.loc 1 216 0
	ldr	r3, [sp, #4]
	cmp	r3, #0
	bne	.L7
.LBB33:
.LBB34:
	.loc 2 237 0 discriminator 1
	.syntax unified
@ 237 "../Middlewares/Third_Party/FreeRTOS/Source/portable/GCC/ARM_CM7/r0p1/portmacro.h" 1
		mov r3, #80												
	cpsid i													
	msr basepri, r3											
	isb														
	dsb														
	cpsie i													

@ 0 "" 2
	.thumb
	.syntax unified
	str	r3, [sp, #20]
.L8:
.LBE34:
.LBE33:
	.loc 1 216 0 discriminator 2
	b	.L8
.L7:
	.loc 1 219 0
	bl	xTaskGetSchedulerState
	mov	r3, r0
	cmp	r3, #0
	bne	.L9
	.loc 1 219 0 is_stmt 0 discriminator 2
	ldr	r3, [sp]
	cmp	r3, #0
	bne	.L10
.L9:
	.loc 1 219 0 discriminator 3
	movs	r3, #1
	b	.L11
.L10:
	.loc 1 219 0 discriminator 4
	movs	r3, #0
.L11:
	.loc 1 219 0 discriminator 6
	cmp	r3, #0
	bne	.L12
.LBB35:
.LBB36:
	.loc 2 237 0 is_stmt 1 discriminator 7
	.syntax unified
@ 237 "../Middlewares/Third_Party/FreeRTOS/Source/portable/GCC/ARM_CM7/r0p1/portmacro.h" 1
		mov r3, #80												
	cpsid i													
	msr basepri, r3											
	isb														
	dsb														
	cpsie i													

@ 0 "" 2
	.thumb
	.syntax unified
	str	r3, [sp, #16]
.L13:
.LBE36:
.LBE35:
	.loc 1 219 0 discriminator 3
	b	.L13
.L12:
	.loc 1 223 0
	bl	vTaskSuspendAll
	.loc 1 225 0
	ldr	r3, [sp, #40]
	ldr	r3, [r3]
	str	r3, [sp, #32]
	.loc 1 227 0
	ldr	r1, [sp, #8]
	ldr	r0, [sp, #12]
	bl	xEventGroupSetBits
	.loc 1 229 0
	ldr	r2, [sp, #32]
	ldr	r3, [sp, #8]
	orrs	r2, r2, r3
	ldr	r3, [sp, #4]
	ands	r3, r3, r2
	ldr	r2, [sp, #4]
	cmp	r2, r3
	bne	.L14
	.loc 1 232 0
	ldr	r2, [sp, #32]
	ldr	r3, [sp, #8]
	orrs	r3, r3, r2
	str	r3, [sp, #44]
	.loc 1 236 0
	ldr	r3, [sp, #40]
	ldr	r2, [r3]
	ldr	r3, [sp, #4]
	mvns	r3, r3
	ands	r2, r2, r3
	ldr	r3, [sp, #40]
	str	r2, [r3]
	.loc 1 238 0
	movs	r3, #0
	str	r3, [sp]
	b	.L15
.L14:
	.loc 1 242 0
	ldr	r3, [sp]
	cmp	r3, #0
	beq	.L16
	.loc 1 249 0
	ldr	r3, [sp, #40]
	adds	r0, r3, #4
	ldr	r3, [sp, #4]
	orr	r3, r3, #83886080
	ldr	r2, [sp]
	mov	r1, r3
	bl	vTaskPlaceOnUnorderedEventList
	.loc 1 255 0
	movs	r3, #0
	str	r3, [sp, #44]
	b	.L15
.L16:
	.loc 1 261 0
	ldr	r3, [sp, #40]
	ldr	r3, [r3]
	str	r3, [sp, #44]
.L15:
	.loc 1 265 0
	bl	xTaskResumeAll
	str	r0, [sp, #28]
	.loc 1 267 0
	ldr	r3, [sp]
	cmp	r3, #0
	beq	.L17
	.loc 1 269 0
	ldr	r3, [sp, #28]
	cmp	r3, #0
	bne	.L18
	.loc 1 271 0
	ldr	r3, .L22
	mov	r2, #268435456
	str	r2, [r3]
	.syntax unified
@ 271 "/Users/zarathustra/Desktop/stm32h7-autopilot/stm32h7-autopilot/Middlewares/Third_Party/FreeRTOS/Source/event_groups.c" 1
	dsb
@ 0 "" 2
@ 271 "/Users/zarathustra/Desktop/stm32h7-autopilot/stm32h7-autopilot/Middlewares/Third_Party/FreeRTOS/Source/event_groups.c" 1
	isb
@ 0 "" 2
	.thumb
	.syntax unified
.L18:
	.loc 1 282 0
	bl	uxTaskResetEventItemValue
	str	r0, [sp, #44]
	.loc 1 284 0
	ldr	r3, [sp, #44]
	and	r3, r3, #33554432
	cmp	r3, #0
	bne	.L19
	.loc 1 287 0
	bl	vPortEnterCritical
	.loc 1 289 0
	ldr	r3, [sp, #40]
	ldr	r3, [r3]
	str	r3, [sp, #44]
	.loc 1 295 0
	ldr	r2, [sp, #44]
	ldr	r3, [sp, #4]
	ands	r3, r3, r2
	ldr	r2, [sp, #4]
	cmp	r2, r3
	bne	.L20
	.loc 1 297 0
	ldr	r3, [sp, #40]
	ldr	r2, [r3]
	ldr	r3, [sp, #4]
	mvns	r3, r3
	ands	r2, r2, r3
	ldr	r3, [sp, #40]
	str	r2, [r3]
.L20:
	.loc 1 304 0
	bl	vPortExitCritical
	.loc 1 306 0
	movs	r3, #1
	str	r3, [sp, #36]
.L19:
	.loc 1 315 0
	ldr	r3, [sp, #44]
	bic	r3, r3, #-16777216
	str	r3, [sp, #44]
.L17:
	.loc 1 320 0
	ldr	r3, [sp, #44]
	.loc 1 321 0
	mov	r0, r3
	add	sp, sp, #52
.LCFI5:
	@ sp needed
	ldr	pc, [sp], #4
.L23:
	.align	2
.L22:
	.word	-536810236
.LFE6:
	.size	xEventGroupSync, .-xEventGroupSync
	.section	.text.xEventGroupWaitBits,"ax",%progbits
	.align	1
	.global	xEventGroupWaitBits
	.syntax unified
	.thumb
	.thumb_func
	.fpu softvfp
	.type	xEventGroupWaitBits, %function
xEventGroupWaitBits:
.LFB7:
	.loc 1 325 0
	@ args = 4, pretend = 0, frame = 64
	@ frame_needed = 0, uses_anonymous_args = 0
	push	{lr}
.LCFI6:
	sub	sp, sp, #68
.LCFI7:
	str	r0, [sp, #12]
	str	r1, [sp, #8]
	str	r2, [sp, #4]
	str	r3, [sp]
	.loc 1 326 0
	ldr	r3, [sp, #12]
	str	r3, [sp, #52]
	.loc 1 327 0
	movs	r3, #0
	str	r3, [sp, #56]
	.loc 1 329 0
	movs	r3, #0
	str	r3, [sp, #48]
	.loc 1 333 0
	ldr	r3, [sp, #12]
	cmp	r3, #0
	bne	.L25
.LBB37:
.LBB38:
	.loc 2 237 0 discriminator 1
	.syntax unified
@ 237 "../Middlewares/Third_Party/FreeRTOS/Source/portable/GCC/ARM_CM7/r0p1/portmacro.h" 1
		mov r3, #80												
	cpsid i													
	msr basepri, r3											
	isb														
	dsb														
	cpsie i													

@ 0 "" 2
	.thumb
	.syntax unified
	str	r3, [sp, #32]
.L26:
.LBE38:
.LBE37:
	.loc 1 333 0 discriminator 1
	b	.L26
.L25:
	.loc 1 334 0
	ldr	r3, [sp, #8]
	and	r3, r3, #-16777216
	cmp	r3, #0
	beq	.L27
.LBB39:
.LBB40:
	.loc 2 237 0 discriminator 1
	.syntax unified
@ 237 "../Middlewares/Third_Party/FreeRTOS/Source/portable/GCC/ARM_CM7/r0p1/portmacro.h" 1
		mov r3, #80												
	cpsid i													
	msr basepri, r3											
	isb														
	dsb														
	cpsie i													

@ 0 "" 2
	.thumb
	.syntax unified
	str	r3, [sp, #28]
.L28:
.LBE40:
.LBE39:
	.loc 1 334 0 discriminator 2
	b	.L28
.L27:
	.loc 1 335 0
	ldr	r3, [sp, #8]
	cmp	r3, #0
	bne	.L29
.LBB41:
.LBB42:
	.loc 2 237 0 discriminator 1
	.syntax unified
@ 237 "../Middlewares/Third_Party/FreeRTOS/Source/portable/GCC/ARM_CM7/r0p1/portmacro.h" 1
		mov r3, #80												
	cpsid i													
	msr basepri, r3											
	isb														
	dsb														
	cpsie i													

@ 0 "" 2
	.thumb
	.syntax unified
	str	r3, [sp, #24]
.L30:
.LBE42:
.LBE41:
	.loc 1 335 0 discriminator 3
	b	.L30
.L29:
	.loc 1 338 0
	bl	xTaskGetSchedulerState
	mov	r3, r0
	cmp	r3, #0
	bne	.L31
	.loc 1 338 0 is_stmt 0 discriminator 2
	ldr	r3, [sp, #72]
	cmp	r3, #0
	bne	.L32
.L31:
	.loc 1 338 0 discriminator 3
	movs	r3, #1
	b	.L33
.L32:
	.loc 1 338 0 discriminator 4
	movs	r3, #0
.L33:
	.loc 1 338 0 discriminator 6
	cmp	r3, #0
	bne	.L34
.LBB43:
.LBB44:
	.loc 2 237 0 is_stmt 1 discriminator 7
	.syntax unified
@ 237 "../Middlewares/Third_Party/FreeRTOS/Source/portable/GCC/ARM_CM7/r0p1/portmacro.h" 1
		mov r3, #80												
	cpsid i													
	msr basepri, r3											
	isb														
	dsb														
	cpsie i													

@ 0 "" 2
	.thumb
	.syntax unified
	str	r3, [sp, #20]
.L35:
.LBE44:
.LBE43:
	.loc 1 338 0 discriminator 4
	b	.L35
.L34:
	.loc 1 342 0
	bl	vTaskSuspendAll
.LBB45:
	.loc 1 344 0
	ldr	r3, [sp, #52]
	ldr	r3, [r3]
	str	r3, [sp, #44]
	.loc 1 347 0
	ldr	r2, [sp]
	ldr	r1, [sp, #8]
	ldr	r0, [sp, #44]
	bl	prvTestWaitCondition
	str	r0, [sp, #40]
	.loc 1 349 0
	ldr	r3, [sp, #40]
	cmp	r3, #0
	beq	.L36
	.loc 1 353 0
	ldr	r3, [sp, #44]
	str	r3, [sp, #60]
	.loc 1 354 0
	movs	r3, #0
	str	r3, [sp, #72]
	.loc 1 357 0
	ldr	r3, [sp, #4]
	cmp	r3, #0
	beq	.L37
	.loc 1 359 0
	ldr	r3, [sp, #52]
	ldr	r2, [r3]
	ldr	r3, [sp, #8]
	mvns	r3, r3
	ands	r2, r2, r3
	ldr	r3, [sp, #52]
	str	r2, [r3]
	b	.L37
.L36:
	.loc 1 366 0
	ldr	r3, [sp, #72]
	cmp	r3, #0
	bne	.L38
	.loc 1 370 0
	ldr	r3, [sp, #44]
	str	r3, [sp, #60]
	b	.L37
.L38:
	.loc 1 378 0
	ldr	r3, [sp, #4]
	cmp	r3, #0
	beq	.L39
	.loc 1 380 0
	ldr	r3, [sp, #56]
	orr	r3, r3, #16777216
	str	r3, [sp, #56]
.L39:
	.loc 1 387 0
	ldr	r3, [sp]
	cmp	r3, #0
	beq	.L40
	.loc 1 389 0
	ldr	r3, [sp, #56]
	orr	r3, r3, #67108864
	str	r3, [sp, #56]
.L40:
	.loc 1 399 0
	ldr	r3, [sp, #52]
	adds	r0, r3, #4
	ldr	r2, [sp, #8]
	ldr	r3, [sp, #56]
	orrs	r3, r3, r2
	ldr	r2, [sp, #72]
	mov	r1, r3
	bl	vTaskPlaceOnUnorderedEventList
	.loc 1 404 0
	movs	r3, #0
	str	r3, [sp, #60]
.L37:
.LBE45:
	.loc 1 409 0
	bl	xTaskResumeAll
	str	r0, [sp, #36]
	.loc 1 411 0
	ldr	r3, [sp, #72]
	cmp	r3, #0
	beq	.L41
	.loc 1 413 0
	ldr	r3, [sp, #36]
	cmp	r3, #0
	bne	.L42
	.loc 1 415 0
	ldr	r3, .L46
	mov	r2, #268435456
	str	r2, [r3]
	.syntax unified
@ 415 "/Users/zarathustra/Desktop/stm32h7-autopilot/stm32h7-autopilot/Middlewares/Third_Party/FreeRTOS/Source/event_groups.c" 1
	dsb
@ 0 "" 2
@ 415 "/Users/zarathustra/Desktop/stm32h7-autopilot/stm32h7-autopilot/Middlewares/Third_Party/FreeRTOS/Source/event_groups.c" 1
	isb
@ 0 "" 2
	.thumb
	.syntax unified
.L42:
	.loc 1 426 0
	bl	uxTaskResetEventItemValue
	str	r0, [sp, #60]
	.loc 1 428 0
	ldr	r3, [sp, #60]
	and	r3, r3, #33554432
	cmp	r3, #0
	bne	.L43
	.loc 1 430 0
	bl	vPortEnterCritical
	.loc 1 433 0
	ldr	r3, [sp, #52]
	ldr	r3, [r3]
	str	r3, [sp, #60]
	.loc 1 437 0
	ldr	r2, [sp]
	ldr	r1, [sp, #8]
	ldr	r0, [sp, #60]
	bl	prvTestWaitCondition
	mov	r3, r0
	cmp	r3, #0
	beq	.L44
	.loc 1 439 0
	ldr	r3, [sp, #4]
	cmp	r3, #0
	beq	.L44
	.loc 1 441 0
	ldr	r3, [sp, #52]
	ldr	r2, [r3]
	ldr	r3, [sp, #8]
	mvns	r3, r3
	ands	r2, r2, r3
	ldr	r3, [sp, #52]
	str	r2, [r3]
.L44:
	.loc 1 453 0
	bl	vPortExitCritical
	.loc 1 456 0
	movs	r3, #0
	str	r3, [sp, #48]
.L43:
	.loc 1 464 0
	ldr	r3, [sp, #60]
	bic	r3, r3, #-16777216
	str	r3, [sp, #60]
.L41:
	.loc 1 468 0
	ldr	r3, [sp, #60]
	.loc 1 469 0
	mov	r0, r3
	add	sp, sp, #68
.LCFI8:
	@ sp needed
	ldr	pc, [sp], #4
.L47:
	.align	2
.L46:
	.word	-536810236
.LFE7:
	.size	xEventGroupWaitBits, .-xEventGroupWaitBits
	.section	.text.xEventGroupClearBits,"ax",%progbits
	.align	1
	.global	xEventGroupClearBits
	.syntax unified
	.thumb
	.thumb_func
	.fpu softvfp
	.type	xEventGroupClearBits, %function
xEventGroupClearBits:
.LFB8:
	.loc 1 473 0
	@ args = 0, pretend = 0, frame = 24
	@ frame_needed = 0, uses_anonymous_args = 0
	push	{lr}
.LCFI9:
	sub	sp, sp, #28
.LCFI10:
	str	r0, [sp, #4]
	str	r1, [sp]
	.loc 1 474 0
	ldr	r3, [sp, #4]
	str	r3, [sp, #20]
	.loc 1 479 0
	ldr	r3, [sp, #4]
	cmp	r3, #0
	bne	.L49
.LBB46:
.LBB47:
	.loc 2 237 0 discriminator 1
	.syntax unified
@ 237 "../Middlewares/Third_Party/FreeRTOS/Source/portable/GCC/ARM_CM7/r0p1/portmacro.h" 1
		mov r3, #80												
	cpsid i													
	msr basepri, r3											
	isb														
	dsb														
	cpsie i													

@ 0 "" 2
	.thumb
	.syntax unified
	str	r3, [sp, #12]
.L50:
.LBE47:
.LBE46:
	.loc 1 479 0 discriminator 1
	b	.L50
.L49:
	.loc 1 480 0
	ldr	r3, [sp]
	and	r3, r3, #-16777216
	cmp	r3, #0
	beq	.L51
.LBB48:
.LBB49:
	.loc 2 237 0 discriminator 1
	.syntax unified
@ 237 "../Middlewares/Third_Party/FreeRTOS/Source/portable/GCC/ARM_CM7/r0p1/portmacro.h" 1
		mov r3, #80												
	cpsid i													
	msr basepri, r3											
	isb														
	dsb														
	cpsie i													

@ 0 "" 2
	.thumb
	.syntax unified
	str	r3, [sp, #8]
.L52:
.LBE49:
.LBE48:
	.loc 1 480 0 discriminator 2
	b	.L52
.L51:
	.loc 1 482 0
	bl	vPortEnterCritical
	.loc 1 488 0
	ldr	r3, [sp, #20]
	ldr	r3, [r3]
	str	r3, [sp, #16]
	.loc 1 491 0
	ldr	r3, [sp, #20]
	ldr	r2, [r3]
	ldr	r3, [sp]
	mvns	r3, r3
	ands	r2, r2, r3
	ldr	r3, [sp, #20]
	str	r2, [r3]
	.loc 1 493 0
	bl	vPortExitCritical
	.loc 1 495 0
	ldr	r3, [sp, #16]
	.loc 1 496 0
	mov	r0, r3
	add	sp, sp, #28
.LCFI11:
	@ sp needed
	ldr	pc, [sp], #4
.LFE8:
	.size	xEventGroupClearBits, .-xEventGroupClearBits
	.section	.text.xEventGroupClearBitsFromISR,"ax",%progbits
	.align	1
	.global	xEventGroupClearBitsFromISR
	.syntax unified
	.thumb
	.thumb_func
	.fpu softvfp
	.type	xEventGroupClearBitsFromISR, %function
xEventGroupClearBitsFromISR:
.LFB9:
	.loc 1 502 0
	@ args = 0, pretend = 0, frame = 16
	@ frame_needed = 0, uses_anonymous_args = 0
	push	{lr}
.LCFI12:
	sub	sp, sp, #20
.LCFI13:
	str	r0, [sp, #4]
	str	r1, [sp]
	.loc 1 506 0
	movs	r3, #0
	ldr	r2, [sp]
	ldr	r1, [sp, #4]
	ldr	r0, .L56
	bl	xTimerPendFunctionCallFromISR
	str	r0, [sp, #12]
	.loc 1 508 0
	ldr	r3, [sp, #12]
	.loc 1 509 0
	mov	r0, r3
	add	sp, sp, #20
.LCFI14:
	@ sp needed
	ldr	pc, [sp], #4
.L57:
	.align	2
.L56:
	.word	vEventGroupClearBitsCallback
.LFE9:
	.size	xEventGroupClearBitsFromISR, .-xEventGroupClearBitsFromISR
	.section	.text.xEventGroupGetBitsFromISR,"ax",%progbits
	.align	1
	.global	xEventGroupGetBitsFromISR
	.syntax unified
	.thumb
	.thumb_func
	.fpu softvfp
	.type	xEventGroupGetBitsFromISR, %function
xEventGroupGetBitsFromISR:
.LFB10:
	.loc 1 515 0
	@ args = 0, pretend = 0, frame = 32
	@ frame_needed = 0, uses_anonymous_args = 0
	@ link register save eliminated.
	sub	sp, sp, #32
.LCFI15:
	str	r0, [sp, #4]
	.loc 1 517 0
	ldr	r3, [sp, #4]
	str	r3, [sp, #28]
.LBB50:
.LBB51:
	.loc 2 255 0
	.syntax unified
@ 255 "../Middlewares/Third_Party/FreeRTOS/Source/portable/GCC/ARM_CM7/r0p1/portmacro.h" 1
		mrs r2, basepri											
	mov r3, #80												
	cpsid i													
	msr basepri, r3											
	isb														
	dsb														
	cpsie i													

@ 0 "" 2
	.thumb
	.syntax unified
	str	r2, [sp, #12]
	str	r3, [sp, #8]
	.loc 2 269 0
	ldr	r3, [sp, #12]
.LBE51:
.LBE50:
	.loc 1 520 0
	str	r3, [sp, #24]
	.loc 1 522 0
	ldr	r3, [sp, #28]
	ldr	r3, [r3]
	str	r3, [sp, #20]
	ldr	r3, [sp, #24]
	str	r3, [sp, #16]
.LBB52:
.LBB53:
	.loc 2 275 0
	ldr	r3, [sp, #16]
	.syntax unified
@ 275 "../Middlewares/Third_Party/FreeRTOS/Source/portable/GCC/ARM_CM7/r0p1/portmacro.h" 1
		msr basepri, r3	
@ 0 "" 2
	.thumb
	.syntax unified
.LBE53:
.LBE52:
	.loc 1 526 0
	ldr	r3, [sp, #20]
	.loc 1 527 0
	mov	r0, r3
	add	sp, sp, #32
.LCFI16:
	@ sp needed
	bx	lr
.LFE10:
	.size	xEventGroupGetBitsFromISR, .-xEventGroupGetBitsFromISR
	.section	.text.xEventGroupSetBits,"ax",%progbits
	.align	1
	.global	xEventGroupSetBits
	.syntax unified
	.thumb
	.thumb_func
	.fpu softvfp
	.type	xEventGroupSetBits, %function
xEventGroupSetBits:
.LFB11:
	.loc 1 531 0
	@ args = 0, pretend = 0, frame = 56
	@ frame_needed = 0, uses_anonymous_args = 0
	push	{lr}
.LCFI17:
	sub	sp, sp, #60
.LCFI18:
	str	r0, [sp, #4]
	str	r1, [sp]
	.loc 1 535 0
	movs	r3, #0
	str	r3, [sp, #48]
	.loc 1 536 0
	ldr	r3, [sp, #4]
	str	r3, [sp, #40]
	.loc 1 537 0
	movs	r3, #0
	str	r3, [sp, #44]
	.loc 1 541 0
	ldr	r3, [sp, #4]
	cmp	r3, #0
	bne	.L62
.LBB54:
.LBB55:
	.loc 2 237 0 discriminator 1
	.syntax unified
@ 237 "../Middlewares/Third_Party/FreeRTOS/Source/portable/GCC/ARM_CM7/r0p1/portmacro.h" 1
		mov r3, #80												
	cpsid i													
	msr basepri, r3											
	isb														
	dsb														
	cpsie i													

@ 0 "" 2
	.thumb
	.syntax unified
	str	r3, [sp, #16]
.L63:
.LBE55:
.LBE54:
	.loc 1 541 0 discriminator 1
	b	.L63
.L62:
	.loc 1 542 0
	ldr	r3, [sp]
	and	r3, r3, #-16777216
	cmp	r3, #0
	beq	.L64
.LBB56:
.LBB57:
	.loc 2 237 0 discriminator 1
	.syntax unified
@ 237 "../Middlewares/Third_Party/FreeRTOS/Source/portable/GCC/ARM_CM7/r0p1/portmacro.h" 1
		mov r3, #80												
	cpsid i													
	msr basepri, r3											
	isb														
	dsb														
	cpsie i													

@ 0 "" 2
	.thumb
	.syntax unified
	str	r3, [sp, #12]
.L65:
.LBE57:
.LBE56:
	.loc 1 542 0 discriminator 2
	b	.L65
.L64:
	.loc 1 544 0
	ldr	r3, [sp, #40]
	adds	r3, r3, #4
	str	r3, [sp, #36]
	.loc 1 545 0
	ldr	r3, [sp, #36]
	adds	r3, r3, #8
	str	r3, [sp, #32]
	.loc 1 546 0
	bl	vTaskSuspendAll
	.loc 1 550 0
	ldr	r3, [sp, #36]
	ldr	r3, [r3, #12]
	str	r3, [sp, #52]
	.loc 1 553 0
	ldr	r3, [sp, #40]
	ldr	r2, [r3]
	ldr	r3, [sp]
	orrs	r2, r2, r3
	ldr	r3, [sp, #40]
	str	r2, [r3]
	.loc 1 556 0
	b	.L66
.L71:
	.loc 1 558 0
	ldr	r3, [sp, #52]
	ldr	r3, [r3, #4]
	str	r3, [sp, #28]
	.loc 1 559 0
	ldr	r3, [sp, #52]
	ldr	r3, [r3]
	str	r3, [sp, #24]
	.loc 1 560 0
	movs	r3, #0
	str	r3, [sp, #44]
	.loc 1 563 0
	ldr	r3, [sp, #24]
	and	r3, r3, #-16777216
	str	r3, [sp, #20]
	.loc 1 564 0
	ldr	r3, [sp, #24]
	bic	r3, r3, #-16777216
	str	r3, [sp, #24]
	.loc 1 566 0
	ldr	r3, [sp, #20]
	and	r3, r3, #67108864
	cmp	r3, #0
	bne	.L67
	.loc 1 569 0
	ldr	r3, [sp, #40]
	ldr	r2, [r3]
	ldr	r3, [sp, #24]
	ands	r3, r3, r2
	cmp	r3, #0
	beq	.L68
	.loc 1 571 0
	movs	r3, #1
	str	r3, [sp, #44]
	b	.L68
.L67:
	.loc 1 578 0
	ldr	r3, [sp, #40]
	ldr	r2, [r3]
	ldr	r3, [sp, #24]
	ands	r3, r3, r2
	ldr	r2, [sp, #24]
	cmp	r2, r3
	bne	.L68
	.loc 1 581 0
	movs	r3, #1
	str	r3, [sp, #44]
.L68:
	.loc 1 588 0
	ldr	r3, [sp, #44]
	cmp	r3, #0
	beq	.L69
	.loc 1 591 0
	ldr	r3, [sp, #20]
	and	r3, r3, #16777216
	cmp	r3, #0
	beq	.L70
	.loc 1 593 0
	ldr	r2, [sp, #48]
	ldr	r3, [sp, #24]
	orrs	r3, r3, r2
	str	r3, [sp, #48]
.L70:
	.loc 1 605 0
	ldr	r3, [sp, #40]
	ldr	r3, [r3]
	orr	r3, r3, #33554432
	mov	r1, r3
	ldr	r0, [sp, #52]
	bl	xTaskRemoveFromUnorderedEventList
.L69:
	.loc 1 611 0
	ldr	r3, [sp, #28]
	str	r3, [sp, #52]
.L66:
	.loc 1 556 0
	ldr	r2, [sp, #52]
	ldr	r3, [sp, #32]
	cmp	r2, r3
	bne	.L71
	.loc 1 616 0
	ldr	r3, [sp, #40]
	ldr	r2, [r3]
	ldr	r3, [sp, #48]
	mvns	r3, r3
	ands	r2, r2, r3
	ldr	r3, [sp, #40]
	str	r2, [r3]
	.loc 1 618 0
	bl	xTaskResumeAll
	.loc 1 620 0
	ldr	r3, [sp, #40]
	ldr	r3, [r3]
	.loc 1 621 0
	mov	r0, r3
	add	sp, sp, #60
.LCFI19:
	@ sp needed
	ldr	pc, [sp], #4
.LFE11:
	.size	xEventGroupSetBits, .-xEventGroupSetBits
	.section	.text.vEventGroupDelete,"ax",%progbits
	.align	1
	.global	vEventGroupDelete
	.syntax unified
	.thumb
	.thumb_func
	.fpu softvfp
	.type	vEventGroupDelete, %function
vEventGroupDelete:
.LFB12:
	.loc 1 625 0
	@ args = 0, pretend = 0, frame = 24
	@ frame_needed = 0, uses_anonymous_args = 0
	push	{lr}
.LCFI20:
	sub	sp, sp, #28
.LCFI21:
	str	r0, [sp, #4]
	.loc 1 626 0
	ldr	r3, [sp, #4]
	str	r3, [sp, #20]
	.loc 1 627 0
	ldr	r3, [sp, #20]
	adds	r3, r3, #4
	str	r3, [sp, #16]
	.loc 1 629 0
	bl	vTaskSuspendAll
	.loc 1 633 0
	b	.L74
.L77:
	.loc 1 637 0
	ldr	r3, [sp, #16]
	ldr	r2, [r3, #12]
	ldr	r3, [sp, #16]
	adds	r3, r3, #8
	cmp	r2, r3
	bne	.L75
.LBB58:
.LBB59:
	.loc 2 237 0 discriminator 1
	.syntax unified
@ 237 "../Middlewares/Third_Party/FreeRTOS/Source/portable/GCC/ARM_CM7/r0p1/portmacro.h" 1
		mov r3, #80												
	cpsid i													
	msr basepri, r3											
	isb														
	dsb														
	cpsie i													

@ 0 "" 2
	.thumb
	.syntax unified
	str	r3, [sp, #12]
.L76:
.LBE59:
.LBE58:
	.loc 1 637 0 discriminator 1
	b	.L76
.L75:
	.loc 1 638 0
	ldr	r3, [sp, #16]
	ldr	r3, [r3, #12]
	mov	r1, #33554432
	mov	r0, r3
	bl	xTaskRemoveFromUnorderedEventList
.L74:
	.loc 1 633 0
	ldr	r3, [sp, #16]
	ldr	r3, [r3]
	cmp	r3, #0
	bne	.L77
	.loc 1 645 0
	ldr	r0, [sp, #20]
	bl	vPortFree
	.loc 1 662 0
	bl	xTaskResumeAll
	.loc 1 663 0
	nop
	add	sp, sp, #28
.LCFI22:
	@ sp needed
	ldr	pc, [sp], #4
.LFE12:
	.size	vEventGroupDelete, .-vEventGroupDelete
	.section	.text.vEventGroupSetBitsCallback,"ax",%progbits
	.align	1
	.global	vEventGroupSetBitsCallback
	.syntax unified
	.thumb
	.thumb_func
	.fpu softvfp
	.type	vEventGroupSetBitsCallback, %function
vEventGroupSetBitsCallback:
.LFB13:
	.loc 1 669 0
	@ args = 0, pretend = 0, frame = 8
	@ frame_needed = 0, uses_anonymous_args = 0
	push	{lr}
.LCFI23:
	sub	sp, sp, #12
.LCFI24:
	str	r0, [sp, #4]
	str	r1, [sp]
	.loc 1 670 0
	ldr	r1, [sp]
	ldr	r0, [sp, #4]
	bl	xEventGroupSetBits
	.loc 1 671 0
	nop
	add	sp, sp, #12
.LCFI25:
	@ sp needed
	ldr	pc, [sp], #4
.LFE13:
	.size	vEventGroupSetBitsCallback, .-vEventGroupSetBitsCallback
	.section	.text.vEventGroupClearBitsCallback,"ax",%progbits
	.align	1
	.global	vEventGroupClearBitsCallback
	.syntax unified
	.thumb
	.thumb_func
	.fpu softvfp
	.type	vEventGroupClearBitsCallback, %function
vEventGroupClearBitsCallback:
.LFB14:
	.loc 1 677 0
	@ args = 0, pretend = 0, frame = 8
	@ frame_needed = 0, uses_anonymous_args = 0
	push	{lr}
.LCFI26:
	sub	sp, sp, #12
.LCFI27:
	str	r0, [sp, #4]
	str	r1, [sp]
	.loc 1 678 0
	ldr	r1, [sp]
	ldr	r0, [sp, #4]
	bl	xEventGroupClearBits
	.loc 1 679 0
	nop
	add	sp, sp, #12
.LCFI28:
	@ sp needed
	ldr	pc, [sp], #4
.LFE14:
	.size	vEventGroupClearBitsCallback, .-vEventGroupClearBitsCallback
	.section	.text.prvTestWaitCondition,"ax",%progbits
	.align	1
	.syntax unified
	.thumb
	.thumb_func
	.fpu softvfp
	.type	prvTestWaitCondition, %function
prvTestWaitCondition:
.LFB15:
	.loc 1 683 0
	@ args = 0, pretend = 0, frame = 24
	@ frame_needed = 0, uses_anonymous_args = 0
	@ link register save eliminated.
	sub	sp, sp, #24
.LCFI29:
	str	r0, [sp, #12]
	str	r1, [sp, #8]
	str	r2, [sp, #4]
	.loc 1 684 0
	movs	r3, #0
	str	r3, [sp, #20]
	.loc 1 686 0
	ldr	r3, [sp, #4]
	cmp	r3, #0
	bne	.L81
	.loc 1 690 0
	ldr	r2, [sp, #12]
	ldr	r3, [sp, #8]
	ands	r3, r3, r2
	cmp	r3, #0
	beq	.L82
	.loc 1 692 0
	movs	r3, #1
	str	r3, [sp, #20]
	b	.L82
.L81:
	.loc 1 703 0
	ldr	r2, [sp, #12]
	ldr	r3, [sp, #8]
	ands	r3, r3, r2
	ldr	r2, [sp, #8]
	cmp	r2, r3
	bne	.L82
	.loc 1 705 0
	movs	r3, #1
	str	r3, [sp, #20]
.L82:
	.loc 1 713 0
	ldr	r3, [sp, #20]
	.loc 1 714 0
	mov	r0, r3
	add	sp, sp, #24
.LCFI30:
	@ sp needed
	bx	lr
.LFE15:
	.size	prvTestWaitCondition, .-prvTestWaitCondition
	.section	.text.xEventGroupSetBitsFromISR,"ax",%progbits
	.align	1
	.global	xEventGroupSetBitsFromISR
	.syntax unified
	.thumb
	.thumb_func
	.fpu softvfp
	.type	xEventGroupSetBitsFromISR, %function
xEventGroupSetBitsFromISR:
.LFB16:
	.loc 1 720 0
	@ args = 0, pretend = 0, frame = 24
	@ frame_needed = 0, uses_anonymous_args = 0
	push	{lr}
.LCFI31:
	sub	sp, sp, #28
.LCFI32:
	str	r0, [sp, #12]
	str	r1, [sp, #8]
	str	r2, [sp, #4]
	.loc 1 724 0
	ldr	r3, [sp, #4]
	ldr	r2, [sp, #8]
	ldr	r1, [sp, #12]
	ldr	r0, .L86
	bl	xTimerPendFunctionCallFromISR
	str	r0, [sp, #20]
	.loc 1 726 0
	ldr	r3, [sp, #20]
	.loc 1 727 0
	mov	r0, r3
	add	sp, sp, #28
.LCFI33:
	@ sp needed
	ldr	pc, [sp], #4
.L87:
	.align	2
.L86:
	.word	vEventGroupSetBitsCallback
.LFE16:
	.size	xEventGroupSetBitsFromISR, .-xEventGroupSetBitsFromISR
	.section	.text.uxEventGroupGetNumber,"ax",%progbits
	.align	1
	.global	uxEventGroupGetNumber
	.syntax unified
	.thumb
	.thumb_func
	.fpu softvfp
	.type	uxEventGroupGetNumber, %function
uxEventGroupGetNumber:
.LFB17:
	.loc 1 735 0
	@ args = 0, pretend = 0, frame = 16
	@ frame_needed = 0, uses_anonymous_args = 0
	@ link register save eliminated.
	sub	sp, sp, #16
.LCFI34:
	str	r0, [sp, #4]
	.loc 1 737 0
	ldr	r3, [sp, #4]
	str	r3, [sp, #8]
	.loc 1 739 0
	ldr	r3, [sp, #4]
	cmp	r3, #0
	bne	.L89
	.loc 1 741 0
	movs	r3, #0
	str	r3, [sp, #12]
	b	.L90
.L89:
	.loc 1 745 0
	ldr	r3, [sp, #8]
	ldr	r3, [r3, #24]
	str	r3, [sp, #12]
.L90:
	.loc 1 748 0
	ldr	r3, [sp, #12]
	.loc 1 749 0
	mov	r0, r3
	add	sp, sp, #16
.LCFI35:
	@ sp needed
	bx	lr
.LFE17:
	.size	uxEventGroupGetNumber, .-uxEventGroupGetNumber
	.section	.debug_frame,"",%progbits
.Lframe0:
	.4byte	.LECIE0-.LSCIE0
.LSCIE0:
	.4byte	0xffffffff
	.byte	0x3
	.ascii	"\000"
	.uleb128 0x1
	.sleb128 -4
	.uleb128 0xe
	.byte	0xc
	.uleb128 0xd
	.uleb128 0
	.align	2
.LECIE0:
.LSFDE0:
	.4byte	.LEFDE0-.LASFDE0
.LASFDE0:
	.4byte	.Lframe0
	.4byte	.LFB5
	.4byte	.LFE5-.LFB5
	.byte	0x4
	.4byte	.LCFI0-.LFB5
	.byte	0xe
	.uleb128 0x4
	.byte	0x8e
	.uleb128 0x1
	.byte	0x4
	.4byte	.LCFI1-.LCFI0
	.byte	0xe
	.uleb128 0x10
	.byte	0x4
	.4byte	.LCFI2-.LCFI1
	.byte	0xe
	.uleb128 0x4
	.align	2
.LEFDE0:
.LSFDE2:
	.4byte	.LEFDE2-.LASFDE2
.LASFDE2:
	.4byte	.Lframe0
	.4byte	.LFB6
	.4byte	.LFE6-.LFB6
	.byte	0x4
	.4byte	.LCFI3-.LFB6
	.byte	0xe
	.uleb128 0x4
	.byte	0x8e
	.uleb128 0x1
	.byte	0x4
	.4byte	.LCFI4-.LCFI3
	.byte	0xe
	.uleb128 0x38
	.byte	0x4
	.4byte	.LCFI5-.LCFI4
	.byte	0xe
	.uleb128 0x4
	.align	2
.LEFDE2:
.LSFDE4:
	.4byte	.LEFDE4-.LASFDE4
.LASFDE4:
	.4byte	.Lframe0
	.4byte	.LFB7
	.4byte	.LFE7-.LFB7
	.byte	0x4
	.4byte	.LCFI6-.LFB7
	.byte	0xe
	.uleb128 0x4
	.byte	0x8e
	.uleb128 0x1
	.byte	0x4
	.4byte	.LCFI7-.LCFI6
	.byte	0xe
	.uleb128 0x48
	.byte	0x4
	.4byte	.LCFI8-.LCFI7
	.byte	0xe
	.uleb128 0x4
	.align	2
.LEFDE4:
.LSFDE6:
	.4byte	.LEFDE6-.LASFDE6
.LASFDE6:
	.4byte	.Lframe0
	.4byte	.LFB8
	.4byte	.LFE8-.LFB8
	.byte	0x4
	.4byte	.LCFI9-.LFB8
	.byte	0xe
	.uleb128 0x4
	.byte	0x8e
	.uleb128 0x1
	.byte	0x4
	.4byte	.LCFI10-.LCFI9
	.byte	0xe
	.uleb128 0x20
	.byte	0x4
	.4byte	.LCFI11-.LCFI10
	.byte	0xe
	.uleb128 0x4
	.align	2
.LEFDE6:
.LSFDE8:
	.4byte	.LEFDE8-.LASFDE8
.LASFDE8:
	.4byte	.Lframe0
	.4byte	.LFB9
	.4byte	.LFE9-.LFB9
	.byte	0x4
	.4byte	.LCFI12-.LFB9
	.byte	0xe
	.uleb128 0x4
	.byte	0x8e
	.uleb128 0x1
	.byte	0x4
	.4byte	.LCFI13-.LCFI12
	.byte	0xe
	.uleb128 0x18
	.byte	0x4
	.4byte	.LCFI14-.LCFI13
	.byte	0xe
	.uleb128 0x4
	.align	2
.LEFDE8:
.LSFDE10:
	.4byte	.LEFDE10-.LASFDE10
.LASFDE10:
	.4byte	.Lframe0
	.4byte	.LFB10
	.4byte	.LFE10-.LFB10
	.byte	0x4
	.4byte	.LCFI15-.LFB10
	.byte	0xe
	.uleb128 0x20
	.byte	0x4
	.4byte	.LCFI16-.LCFI15
	.byte	0xe
	.uleb128 0
	.align	2
.LEFDE10:
.LSFDE12:
	.4byte	.LEFDE12-.LASFDE12
.LASFDE12:
	.4byte	.Lframe0
	.4byte	.LFB11
	.4byte	.LFE11-.LFB11
	.byte	0x4
	.4byte	.LCFI17-.LFB11
	.byte	0xe
	.uleb128 0x4
	.byte	0x8e
	.uleb128 0x1
	.byte	0x4
	.4byte	.LCFI18-.LCFI17
	.byte	0xe
	.uleb128 0x40
	.byte	0x4
	.4byte	.LCFI19-.LCFI18
	.byte	0xe
	.uleb128 0x4
	.align	2
.LEFDE12:
.LSFDE14:
	.4byte	.LEFDE14-.LASFDE14
.LASFDE14:
	.4byte	.Lframe0
	.4byte	.LFB12
	.4byte	.LFE12-.LFB12
	.byte	0x4
	.4byte	.LCFI20-.LFB12
	.byte	0xe
	.uleb128 0x4
	.byte	0x8e
	.uleb128 0x1
	.byte	0x4
	.4byte	.LCFI21-.LCFI20
	.byte	0xe
	.uleb128 0x20
	.byte	0x4
	.4byte	.LCFI22-.LCFI21
	.byte	0xe
	.uleb128 0x4
	.align	2
.LEFDE14:
.LSFDE16:
	.4byte	.LEFDE16-.LASFDE16
.LASFDE16:
	.4byte	.Lframe0
	.4byte	.LFB13
	.4byte	.LFE13-.LFB13
	.byte	0x4
	.4byte	.LCFI23-.LFB13
	.byte	0xe
	.uleb128 0x4
	.byte	0x8e
	.uleb128 0x1
	.byte	0x4
	.4byte	.LCFI24-.LCFI23
	.byte	0xe
	.uleb128 0x10
	.byte	0x4
	.4byte	.LCFI25-.LCFI24
	.byte	0xe
	.uleb128 0x4
	.align	2
.LEFDE16:
.LSFDE18:
	.4byte	.LEFDE18-.LASFDE18
.LASFDE18:
	.4byte	.Lframe0
	.4byte	.LFB14
	.4byte	.LFE14-.LFB14
	.byte	0x4
	.4byte	.LCFI26-.LFB14
	.byte	0xe
	.uleb128 0x4
	.byte	0x8e
	.uleb128 0x1
	.byte	0x4
	.4byte	.LCFI27-.LCFI26
	.byte	0xe
	.uleb128 0x10
	.byte	0x4
	.4byte	.LCFI28-.LCFI27
	.byte	0xe
	.uleb128 0x4
	.align	2
.LEFDE18:
.LSFDE20:
	.4byte	.LEFDE20-.LASFDE20
.LASFDE20:
	.4byte	.Lframe0
	.4byte	.LFB15
	.4byte	.LFE15-.LFB15
	.byte	0x4
	.4byte	.LCFI29-.LFB15
	.byte	0xe
	.uleb128 0x18
	.byte	0x4
	.4byte	.LCFI30-.LCFI29
	.byte	0xe
	.uleb128 0
	.align	2
.LEFDE20:
.LSFDE22:
	.4byte	.LEFDE22-.LASFDE22
.LASFDE22:
	.4byte	.Lframe0
	.4byte	.LFB16
	.4byte	.LFE16-.LFB16
	.byte	0x4
	.4byte	.LCFI31-.LFB16
	.byte	0xe
	.uleb128 0x4
	.byte	0x8e
	.uleb128 0x1
	.byte	0x4
	.4byte	.LCFI32-.LCFI31
	.byte	0xe
	.uleb128 0x20
	.byte	0x4
	.4byte	.LCFI33-.LCFI32
	.byte	0xe
	.uleb128 0x4
	.align	2
.LEFDE22:
.LSFDE24:
	.4byte	.LEFDE24-.LASFDE24
.LASFDE24:
	.4byte	.Lframe0
	.4byte	.LFB17
	.4byte	.LFE17-.LFB17
	.byte	0x4
	.4byte	.LCFI34-.LFB17
	.byte	0xe
	.uleb128 0x10
	.byte	0x4
	.4byte	.LCFI35-.LCFI34
	.byte	0xe
	.uleb128 0
	.align	2
.LEFDE24:
	.text
.Letext0:
	.file 3 "/Applications/CrossWorks for ARM 4.1/include/__crossworks.h"
	.file 4 "/Applications/CrossWorks for ARM 4.1/include/stdint.h"
	.file 5 "../Inc/FreeRTOSConfig.h"
	.file 6 "../Middlewares/Third_Party/FreeRTOS/Source/include/list.h"
	.file 7 "../Middlewares/Third_Party/FreeRTOS/Source/include/event_groups.h"